target datalayout = "e-m:e-p270:32:32-p271:32:32-p272:64:64-i64:64-i128:128-f80:128-n8:16:32:64-S128"
target triple = "x86_64-pc-linux-gnu"

%struct.stbir__contributors = type { i32, i32 }
%struct.__mm_loadl_epi64_struct = type { i64 }
%struct.__loadu_ps = type { <4 x float> }
%struct.__storeu_ps = type { <4 x float> }

; Function Attrs: alwaysinline nounwind uwtable
define internal void @_mm_storeu_ps(ptr noundef %0, <4 x float> noundef %1) #13 {
  %3 = alloca ptr, align 8
  %4 = alloca <4 x float>, align 16
  store ptr %0, ptr %3, align 8
  store <4 x float> %1, ptr %4, align 16
  %5 = load <4 x float>, ptr %4, align 16
  %6 = load ptr, ptr %3, align 8
  %7 = getelementptr inbounds nuw %struct.__storeu_ps, ptr %6, i32 0, i32 0
  store <4 x float> %5, ptr %7, align 1
  ret void
}

; Function Attrs: alwaysinline nounwind uwtable
define internal <4 x float> @_mm_add_ps(<4 x float> noundef %0, <4 x float> noundef %1) #13 {
  %3 = alloca <4 x float>, align 16
  %4 = alloca <4 x float>, align 16
  store <4 x float> %0, ptr %3, align 16
  store <4 x float> %1, ptr %4, align 16
  %5 = load <4 x float>, ptr %3, align 16
  %6 = load <4 x float>, ptr %4, align 16
  %7 = fadd <4 x float> %5, %6
  ret <4 x float> %7
}

; Function Attrs: alwaysinline nounwind uwtable
define internal <4 x float> @_mm_mul_ps(<4 x float> noundef %0, <4 x float> noundef %1) #13 {
  %3 = alloca <4 x float>, align 16
  %4 = alloca <4 x float>, align 16
  store <4 x float> %0, ptr %3, align 16
  store <4 x float> %1, ptr %4, align 16
  %5 = load <4 x float>, ptr %3, align 16
  %6 = load <4 x float>, ptr %4, align 16
  %7 = fmul <4 x float> %5, %6
  ret <4 x float> %7
}

; Function Attrs: alwaysinline nounwind uwtable
define internal <4 x float> @_mm_loadu_ps(ptr noundef %0) #13 {
  %2 = alloca ptr, align 8
  store ptr %0, ptr %2, align 8
  %3 = load ptr, ptr %2, align 8
  %4 = getelementptr inbounds nuw %struct.__loadu_ps, ptr %3, i32 0, i32 0
  %5 = load <4 x float>, ptr %4, align 1
  ret <4 x float> %5
}

; Function Attrs: alwaysinline nounwind uwtable
define internal <2 x i64> @_mm_castps_si128(<4 x float> noundef %0) #13 {
  %2 = alloca <4 x float>, align 16
  store <4 x float> %0, ptr %2, align 16
  %3 = load <4 x float>, ptr %2, align 16
  %4 = bitcast <4 x float> %3 to <2 x i64>
  ret <2 x i64> %4
}

; Function Attrs: alwaysinline nounwind uwtable
define internal <4 x float> @_mm_castsi128_ps(<2 x i64> noundef %0) #13 {
  %2 = alloca <2 x i64>, align 16
  store <2 x i64> %0, ptr %2, align 16
  %3 = load <2 x i64>, ptr %2, align 16
  %4 = bitcast <2 x i64> %3 to <4 x float>
  ret <4 x float> %4
}

; Function Attrs: alwaysinline nounwind uwtable
define internal <2 x i64> @_mm_loadl_epi64(ptr noundef %0) #13 {
  %2 = alloca ptr, align 8
  %3 = alloca <2 x i64>, align 16
  store ptr %0, ptr %2, align 8
  %4 = load ptr, ptr %2, align 8
  %5 = getelementptr inbounds nuw %struct.__mm_loadl_epi64_struct, ptr %4, i32 0, i32 0
  %6 = load i64, ptr %5, align 1
  %7 = insertelement <2 x i64> poison, i64 %6, i32 0
  %8 = insertelement <2 x i64> %7, i64 0, i32 1
  store <2 x i64> %8, ptr %3, align 16
  %9 = load <2 x i64>, ptr %3, align 16
  ret <2 x i64> %9
}

; Function Attrs: nounwind uwtable
define internal void @stbir__horizontal_gather_7_channels_with_2_coeffs(ptr noundef %0, i32 noundef %1, ptr noundef %2, ptr noundef %3, ptr noundef %4, i32 noundef %5) #12 {
  %7 = alloca ptr, align 8
  %8 = alloca i32, align 4
  %9 = alloca ptr, align 8
  %10 = alloca ptr, align 8
  %11 = alloca ptr, align 8
  %12 = alloca i32, align 4
  %13 = alloca ptr, align 8
  %14 = alloca ptr, align 8
  %15 = alloca ptr, align 8
  %16 = alloca ptr, align 8
  %17 = alloca <4 x float>, align 16
  %18 = alloca <4 x float>, align 16
  %19 = alloca <4 x float>, align 16
  %20 = alloca <4 x float>, align 16
  store ptr %0, ptr %7, align 8
  store i32 %1, ptr %8, align 4
  store ptr %2, ptr %9, align 8
  store ptr %3, ptr %10, align 8
  store ptr %4, ptr %11, align 8
  store i32 %5, ptr %12, align 4
  call void @llvm.lifetime.start.p0(i64 8, ptr %13) #19
  %21 = load ptr, ptr %7, align 8
  %22 = load i32, ptr %8, align 4
  %23 = mul i32 %22, 7
  %24 = zext i32 %23 to i64
  %25 = getelementptr inbounds nuw float, ptr %21, i64 %24
  store ptr %25, ptr %13, align 8
  call void @llvm.lifetime.start.p0(i64 8, ptr %14) #19
  %26 = load ptr, ptr %7, align 8
  store ptr %26, ptr %14, align 8
  br label %27

27:                                               ; preds = %88, %6
  call void @llvm.lifetime.start.p0(i64 8, ptr %15) #19
  %28 = load ptr, ptr %9, align 8
  %29 = load ptr, ptr %10, align 8
  %30 = getelementptr inbounds nuw %struct.stbir__contributors, ptr %29, i32 0, i32 0
  %31 = load i32, ptr %30, align 4
  %32 = mul nsw i32 %31, 7
  %33 = sext i32 %32 to i64
  %34 = getelementptr inbounds float, ptr %28, i64 %33
  store ptr %34, ptr %15, align 8
  call void @llvm.lifetime.start.p0(i64 8, ptr %16) #19
  %35 = load ptr, ptr %11, align 8
  store ptr %35, ptr %16, align 8
  call void @llvm.lifetime.start.p0(i64 16, ptr %17) #19
  call void @llvm.lifetime.start.p0(i64 16, ptr %18) #19
  call void @llvm.lifetime.start.p0(i64 16, ptr %19) #19
  call void @llvm.lifetime.start.p0(i64 16, ptr %20) #19
  %36 = load ptr, ptr %15, align 8
  call void asm sideeffect "", "r,~{dirflag},~{fpsr},~{flags}"(ptr %36) #19, !srcloc !632
  %37 = load ptr, ptr %16, align 8
  %38 = call <2 x i64> @_mm_loadl_epi64(ptr noundef %37)
  %39 = call <4 x float> @_mm_castsi128_ps(<2 x i64> noundef %38)
  store <4 x float> %39, ptr %20, align 16
  %40 = load <4 x float>, ptr %20, align 16
  %41 = call <2 x i64> @_mm_castps_si128(<4 x float> noundef %40)
  %42 = bitcast <2 x i64> %41 to <4 x i32>
  %43 = shufflevector <4 x i32> %42, <4 x i32> poison, <4 x i32> zeroinitializer
  %44 = bitcast <4 x i32> %43 to <2 x i64>
  %45 = call <4 x float> @_mm_castsi128_ps(<2 x i64> noundef %44)
  store <4 x float> %45, ptr %19, align 16
  %46 = load <4 x float>, ptr %19, align 16
  %47 = load ptr, ptr %15, align 8
  %48 = call <4 x float> @_mm_loadu_ps(ptr noundef %47)
  %49 = call <4 x float> @_mm_mul_ps(<4 x float> noundef %46, <4 x float> noundef %48)
  store <4 x float> %49, ptr %17, align 16
  %50 = load <4 x float>, ptr %19, align 16
  %51 = load ptr, ptr %15, align 8
  %52 = getelementptr inbounds float, ptr %51, i64 3
  %53 = call <4 x float> @_mm_loadu_ps(ptr noundef %52)
  %54 = call <4 x float> @_mm_mul_ps(<4 x float> noundef %50, <4 x float> noundef %53)
  store <4 x float> %54, ptr %18, align 16
  %55 = load <4 x float>, ptr %20, align 16
  %56 = call <2 x i64> @_mm_castps_si128(<4 x float> noundef %55)
  %57 = bitcast <2 x i64> %56 to <4 x i32>
  %58 = shufflevector <4 x i32> %57, <4 x i32> poison, <4 x i32> <i32 1, i32 1, i32 1, i32 1>
  %59 = bitcast <4 x i32> %58 to <2 x i64>
  %60 = call <4 x float> @_mm_castsi128_ps(<2 x i64> noundef %59)
  store <4 x float> %60, ptr %19, align 16
  %61 = load <4 x float>, ptr %17, align 16
  %62 = load <4 x float>, ptr %19, align 16
  %63 = load ptr, ptr %15, align 8
  %64 = getelementptr inbounds float, ptr %63, i64 7
  %65 = call <4 x float> @_mm_loadu_ps(ptr noundef %64)
  %66 = call <4 x float> @_mm_mul_ps(<4 x float> noundef %62, <4 x float> noundef %65)
  %67 = call <4 x float> @_mm_add_ps(<4 x float> noundef %61, <4 x float> noundef %66)
  store <4 x float> %67, ptr %17, align 16
  %68 = load <4 x float>, ptr %18, align 16
  %69 = load <4 x float>, ptr %19, align 16
  %70 = load ptr, ptr %15, align 8
  %71 = getelementptr inbounds float, ptr %70, i64 10
  %72 = call <4 x float> @_mm_loadu_ps(ptr noundef %71)
  %73 = call <4 x float> @_mm_mul_ps(<4 x float> noundef %69, <4 x float> noundef %72)
  %74 = call <4 x float> @_mm_add_ps(<4 x float> noundef %68, <4 x float> noundef %73)
  store <4 x float> %74, ptr %18, align 16
  %75 = load ptr, ptr %14, align 8
  %76 = getelementptr inbounds float, ptr %75, i64 3
  %77 = load <4 x float>, ptr %18, align 16
  call void @_mm_storeu_ps(ptr noundef %76, <4 x float> noundef %77)
  %78 = load ptr, ptr %14, align 8
  %79 = load <4 x float>, ptr %17, align 16
  call void @_mm_storeu_ps(ptr noundef %78, <4 x float> noundef %79)
  %80 = load i32, ptr %12, align 4
  %81 = load ptr, ptr %11, align 8
  %82 = sext i32 %80 to i64
  %83 = getelementptr inbounds float, ptr %81, i64 %82
  store ptr %83, ptr %11, align 8
  %84 = load ptr, ptr %10, align 8
  %85 = getelementptr inbounds nuw %struct.stbir__contributors, ptr %84, i32 1
  store ptr %85, ptr %10, align 8
  %86 = load ptr, ptr %14, align 8
  %87 = getelementptr inbounds float, ptr %86, i64 7
  store ptr %87, ptr %14, align 8
  call void @llvm.lifetime.end.p0(i64 16, ptr %20) #19
  call void @llvm.lifetime.end.p0(i64 16, ptr %19) #19
  call void @llvm.lifetime.end.p0(i64 16, ptr %18) #19
  call void @llvm.lifetime.end.p0(i64 16, ptr %17) #19
  call void @llvm.lifetime.end.p0(i64 8, ptr %16) #19
  call void @llvm.lifetime.end.p0(i64 8, ptr %15) #19
  br label %88

88:                                               ; preds = %27
  %89 = load ptr, ptr %14, align 8
  %90 = load ptr, ptr %13, align 8
  %91 = icmp ult ptr %89, %90
  br i1 %91, label %27, label %92, !llvm.loop !633

92:                                               ; preds = %88
  call void @llvm.lifetime.end.p0(i64 8, ptr %14) #19
  call void @llvm.lifetime.end.p0(i64 8, ptr %13) #19
  ret void
}