; Function Attrs: nounwind uwtable
define internal void @stbir__horizontal_gather_7_channels_with_2_coeffs(ptr noundef writeonly captures(address) %0, i32 noundef %1, ptr noundef %2, ptr noundef readonly captures(none) %3, ptr noundef readonly captures(none) %4, i32 noundef %5) #22 {
  %7 = mul i32 %1, 7
  %8 = zext i32 %7 to i64
  %9 = getelementptr inbounds nuw float, ptr %0, i64 %8
  %10 = sext i32 %5 to i64
  br label %11

11:                                               ; preds = %11, %6
  %.030 = phi ptr [ %0, %6 ], [ %37, %11 ]
  %.029 = phi ptr [ %4, %6 ], [ %35, %11 ]
  %.0 = phi ptr [ %3, %6 ], [ %36, %11 ]
  %12 = load i32, ptr %.0, align 4
  %13 = mul nsw i32 %12, 7
  %14 = sext i32 %13 to i64
  %15 = getelementptr inbounds float, ptr %2, i64 %14
  tail call void asm sideeffect "", "r,~{dirflag},~{fpsr},~{flags}"(ptr %15) #54, !srcloc !583
  %16 = load i64, ptr %.029, align 1
  %17 = insertelement <2 x i64> <i64 poison, i64 0>, i64 %16, i64 0
  %18 = bitcast <2 x i64> %17 to <4 x float>
  %19 = shufflevector <4 x float> %18, <4 x float> poison, <4 x i32> zeroinitializer
  %20 = load <4 x float>, ptr %15, align 1
  %21 = fmul <4 x float> %20, %19
  %22 = getelementptr inbounds nuw i8, ptr %15, i64 12
  %23 = load <4 x float>, ptr %22, align 1
  %24 = fmul <4 x float> %23, %19
  %25 = shufflevector <4 x float> %18, <4 x float> poison, <4 x i32> <i32 1, i32 1, i32 1, i32 1>
  %26 = getelementptr inbounds nuw i8, ptr %15, i64 28
  %27 = load <4 x float>, ptr %26, align 1
  %28 = fmul <4 x float> %25, %27
  %29 = fadd <4 x float> %21, %28
  %30 = getelementptr inbounds nuw i8, ptr %15, i64 40
  %31 = load <4 x float>, ptr %30, align 1
  %32 = fmul <4 x float> %25, %31
  %33 = fadd <4 x float> %24, %32
  %34 = getelementptr inbounds nuw i8, ptr %.030, i64 12
  store <4 x float> %33, ptr %34, align 1
  store <4 x float> %29, ptr %.030, align 1
  %35 = getelementptr inbounds float, ptr %.029, i64 %10
  %36 = getelementptr inbounds nuw i8, ptr %.0, i64 8
  %37 = getelementptr inbounds nuw i8, ptr %.030, i64 28
  %38 = icmp ult ptr %37, %9
  br i1 %38, label %11, label %39, !llvm.loop !584

39:                                               ; preds = %11
  ret void
}